; Function Attrs: nounwind sspstrong uwtable
define internal noundef i64 @rb_str_bytes(i64 noundef %0) #1 {
  %2 = tail call i32 @rb_block_given_p() #29
  %.not = icmp eq i32 %2, 0
  %3 = inttoptr i64 %0 to ptr
  %4 = getelementptr inbounds nuw i8, ptr %3, i64 16
  %5 = load i64, ptr %4, align 8, !tbaa !12
  br i1 %.not, label %6, label %.thread

6:                                                ; preds = %1
  %7 = tail call i64 @rb_ary_new_capa(i64 noundef %5) #29
  %8 = getelementptr inbounds nuw i8, ptr %3, i64 16
  %9 = load i64, ptr %8, align 8, !tbaa !12
  %10 = icmp sgt i64 %9, 0
  br i1 %10, label %.lr.ph.i, label %rb_str_enumerate_bytes.exit

.thread:                                          ; preds = %1
  %11 = icmp sgt i64 %5, 0
  br i1 %11, label %.lr.ph.i.thread, label %rb_str_enumerate_bytes.exit.thread

.lr.ph.i.thread:                                  ; preds = %.thread
  %12 = getelementptr inbounds nuw i8, ptr %3, i64 24
  br label %.lr.ph.split.us.i.preheader

.lr.ph.i:                                         ; preds = %6
  %13 = getelementptr inbounds nuw i8, ptr %3, i64 24
  %.not.i.i = icmp eq i64 %7, 0
  br i1 %.not.i.i, label %.lr.ph.split.us.i.preheader, label %.lr.ph.split.i

.lr.ph.split.us.i.preheader:                      ; preds = %.lr.ph.i.thread, %.lr.ph.i
  %14 = phi ptr [ %12, %.lr.ph.i.thread ], [ %13, %.lr.ph.i ]
  %15 = phi ptr [ %4, %.lr.ph.i.thread ], [ %8, %.lr.ph.i ]
  br label %.lr.ph.split.us.i

.lr.ph.split.us.i:                                ; preds = %.lr.ph.split.us.i.preheader, %RSTRING_PTR.exit.us.i
  %.012.us.i = phi i64 [ %25, %RSTRING_PTR.exit.us.i ], [ 0, %.lr.ph.split.us.i.preheader ]
  %16 = load i64, ptr %3, align 8, !tbaa !7, !noalias !621
  %17 = and i64 %16, 8192
  %.not.i.i.us.i = icmp eq i64 %17, 0
  br i1 %.not.i.i.us.i, label %RSTRING_PTR.exit.us.i, label %18

18:                                               ; preds = %.lr.ph.split.us.i
  %.sroa.2.0.copyload.i.us.i = load ptr, ptr %14, align 8
  br label %RSTRING_PTR.exit.us.i

RSTRING_PTR.exit.us.i:                            ; preds = %18, %.lr.ph.split.us.i
  %.sroa.2.0.i.us.i = phi ptr [ %.sroa.2.0.copyload.i.us.i, %18 ], [ %14, %.lr.ph.split.us.i ]
  %19 = getelementptr i8, ptr %.sroa.2.0.i.us.i, i64 %.012.us.i
  %20 = load i8, ptr %19, align 1, !tbaa !19
  %21 = zext i8 %20 to i64
  %22 = shl nuw nsw i64 %21, 1
  %23 = or disjoint i64 %22, 1
  %24 = tail call i64 @rb_yield(i64 noundef %23) #29
  %25 = add nuw nsw i64 %.012.us.i, 1
  %26 = load i64, ptr %15, align 8, !tbaa !12
  %27 = icmp slt i64 %25, %26
  br i1 %27, label %.lr.ph.split.us.i, label %rb_str_enumerate_bytes.exit, !llvm.loop !624

.lr.ph.split.i:                                   ; preds = %.lr.ph.i, %RSTRING_PTR.exit.i
  %.012.i = phi i64 [ %37, %RSTRING_PTR.exit.i ], [ 0, %.lr.ph.i ]
  %28 = load i64, ptr %3, align 8, !tbaa !7, !noalias !621
  %29 = and i64 %28, 8192
  %.not.i.i.i = icmp eq i64 %29, 0
  br i1 %.not.i.i.i, label %RSTRING_PTR.exit.i, label %30

30:                                               ; preds = %.lr.ph.split.i
  %.sroa.2.0.copyload.i.i = load ptr, ptr %13, align 8
  br label %RSTRING_PTR.exit.i

RSTRING_PTR.exit.i:                               ; preds = %30, %.lr.ph.split.i
  %.sroa.2.0.i.i = phi ptr [ %.sroa.2.0.copyload.i.i, %30 ], [ %13, %.lr.ph.split.i ]
  %31 = getelementptr i8, ptr %.sroa.2.0.i.i, i64 %.012.i
  %32 = load i8, ptr %31, align 1, !tbaa !19
  %33 = zext i8 %32 to i64
  %34 = shl nuw nsw i64 %33, 1
  %35 = or disjoint i64 %34, 1
  %36 = tail call i64 @rb_ary_push(i64 noundef %7, i64 noundef %35) #29
  %37 = add nuw nsw i64 %.012.i, 1
  %38 = load i64, ptr %8, align 8, !tbaa !12
  %39 = icmp slt i64 %37, %38
  br i1 %39, label %.lr.ph.split.i, label %rb_str_enumerate_bytes.exit, !llvm.loop !624

rb_str_enumerate_bytes.exit:                      ; preds = %RSTRING_PTR.exit.i, %RSTRING_PTR.exit.us.i, %6
  %40 = phi i64 [ %7, %6 ], [ 0, %RSTRING_PTR.exit.us.i ], [ %7, %RSTRING_PTR.exit.i ]
  %.fr = freeze i64 %40
  %.not.i = icmp eq i64 %.fr, 0
  br i1 %.not.i, label %rb_str_enumerate_bytes.exit.thread, label %41

rb_str_enumerate_bytes.exit.thread:               ; preds = %.thread, %rb_str_enumerate_bytes.exit
  br label %41

41:                                               ; preds = %rb_str_enumerate_bytes.exit, %rb_str_enumerate_bytes.exit.thread
  %42 = phi i64 [ %0, %rb_str_enumerate_bytes.exit.thread ], [ %.fr, %rb_str_enumerate_bytes.exit ]
  ret i64 %42
}